; Function Attrs: nounwind uwtable
define internal void @VULKAN_INTERNAL_DescriptorSetLayoutHashDestroy(ptr noundef readonly captures(none) %0, ptr noundef %1, ptr noundef %2) #0 {
  %4 = icmp eq ptr %2, null
  br i1 %4, label %VULKAN_INTERNAL_DestroyDescriptorSetLayout.exit, label %5

5:                                                ; preds = %3
  %6 = getelementptr inbounds nuw i8, ptr %2, i64 8
  %7 = load ptr, ptr %6, align 8
  %.not.i = icmp eq ptr %7, null
  br i1 %.not.i, label %13, label %8

8:                                                ; preds = %5
  %9 = getelementptr inbounds nuw i8, ptr %0, i64 3160
  %10 = load ptr, ptr %9, align 8
  %11 = getelementptr inbounds nuw i8, ptr %0, i64 1616
  %12 = load ptr, ptr %11, align 8
  tail call void %10(ptr noundef %12, ptr noundef nonnull %7, ptr noundef null) #13
  br label %13

13:                                               ; preds = %8, %5
  tail call void @SDL_free_REAL(ptr noundef nonnull %2) #13
  br label %VULKAN_INTERNAL_DestroyDescriptorSetLayout.exit

VULKAN_INTERNAL_DestroyDescriptorSetLayout.exit:  ; preds = %3, %13
  tail call void @SDL_free_REAL(ptr noundef %1) #13
  ret void
}